; ModuleID = 'source-C-CXX/57/704.c'
source_filename = "source-C-CXX/57/704.c"
target datalayout = "e-m:e-p270:32:32-p271:32:32-p272:64:64-i64:64-f80:128-n8:16:32:64-S128"
target triple = "x86_64-pc-linux-gnu"

@.str = private unnamed_addr constant [4 x i8] c"%d\0A\00", align 1
@str.3 = private unnamed_addr constant [2 x i8] c"1\00", align 1
@str.4 = private unnamed_addr constant [2 x i8] c"0\00", align 1

; Function Attrs: nounwind sspstrong uwtable
define dso_local i32 @main() local_unnamed_addr #0 {
  %1 = alloca i32, align 4
  %2 = alloca [500 x [1000 x i8]], align 16
  %3 = bitcast i32* %1 to i8*
  call void @llvm.lifetime.start.p0i8(i64 4, i8* nonnull %3) #6
  %4 = getelementptr inbounds [500 x [1000 x i8]], [500 x [1000 x i8]]* %2, i64 0, i64 0, i64 0
  call void @llvm.lifetime.start.p0i8(i64 500000, i8* nonnull %4) #6
  %5 = call i32 (i8*, ...) @__isoc99_scanf(i8* getelementptr inbounds ([4 x i8], [4 x i8]* @.str, i64 0, i64 0), i32* nonnull %1)
  %6 = load i32, i32* %1, align 4, !tbaa !5
  %7 = icmp sgt i32 %6, 0
  br i1 %7, label %8, label %56

8:                                                ; preds = %0, %51
  %9 = phi i64 [ %52, %51 ], [ 0, %0 ]
  %10 = getelementptr inbounds [500 x [1000 x i8]], [500 x [1000 x i8]]* %2, i64 0, i64 %9, i64 0
  %11 = call i32 (i8*, ...) bitcast (i32 (...)* @gets to i32 (i8*, ...)*)(i8* nonnull %10) #6
  %12 = call i64 @strlen(i8* noundef nonnull %10) #7
  %13 = trunc i64 %12 to i32
  %14 = load i8, i8* %10, align 8, !tbaa !9
  %15 = icmp eq i8 %14, 95
  %16 = and i8 %14, -33
  %17 = add i8 %16, -65
  %18 = icmp ult i8 %17, 26
  %19 = or i1 %18, %15
  br i1 %19, label %20, label %48

20:                                               ; preds = %8
  %21 = icmp sgt i32 %13, 0
  br i1 %21, label %22, label %45

22:                                               ; preds = %20
  %23 = shl i64 %12, 32
  %24 = ashr exact i64 %23, 32
  br label %25

25:                                               ; preds = %42, %22
  %26 = phi i8 [ %14, %22 ], [ %44, %42 ]
  %27 = phi i64 [ 0, %22 ], [ %40, %42 ]
  %28 = and i8 %26, -33
  %29 = add i8 %28, -65
  %30 = icmp ult i8 %29, 26
  br i1 %30, label %39, label %31

31:                                               ; preds = %25
  %32 = add i8 %26, -48
  %33 = icmp ult i8 %32, 10
  %34 = icmp eq i8 %26, 95
  %35 = or i1 %34, %33
  br i1 %35, label %39, label %36

36:                                               ; preds = %31
  %37 = trunc i64 %27 to i32
  %38 = call i32 @puts(i8* nonnull dereferenceable(1) getelementptr inbounds ([2 x i8], [2 x i8]* @str.4, i64 0, i64 0))
  br label %45

39:                                               ; preds = %31, %25
  %40 = add nuw nsw i64 %27, 1
  %41 = icmp eq i64 %40, %24
  br i1 %41, label %48, label %42, !llvm.loop !10

42:                                               ; preds = %39
  %43 = getelementptr inbounds [500 x [1000 x i8]], [500 x [1000 x i8]]* %2, i64 0, i64 %9, i64 %40
  %44 = load i8, i8* %43, align 1, !tbaa !9
  br label %25

45:                                               ; preds = %20, %36
  %46 = phi i32 [ %37, %36 ], [ 0, %20 ]
  %47 = icmp eq i32 %46, %13
  br i1 %47, label %48, label %51

48:                                               ; preds = %39, %8, %45
  %49 = phi i8* [ getelementptr inbounds ([2 x i8], [2 x i8]* @str.3, i64 0, i64 0), %45 ], [ getelementptr inbounds ([2 x i8], [2 x i8]* @str.4, i64 0, i64 0), %8 ], [ getelementptr inbounds ([2 x i8], [2 x i8]* @str.3, i64 0, i64 0), %39 ]
  %50 = call i32 @puts(i8* nonnull dereferenceable(1) %49)
  br label %51

51:                                               ; preds = %48, %45
  %52 = add nuw nsw i64 %9, 1
  %53 = load i32, i32* %1, align 4, !tbaa !5
  %54 = sext i32 %53 to i64
  %55 = icmp slt i64 %52, %54
  br i1 %55, label %8, label %56, !llvm.loop !12

56:                                               ; preds = %51, %0
  call void @llvm.lifetime.end.p0i8(i64 500000, i8* nonnull %4) #6
  call void @llvm.lifetime.end.p0i8(i64 4, i8* nonnull %3) #6
  ret i32 0
}

; Function Attrs: argmemonly mustprogress nofree nosync nounwind willreturn
declare void @llvm.lifetime.start.p0i8(i64 immarg, i8* nocapture) #1

; Function Attrs: nofree nounwind
declare noundef i32 @__isoc99_scanf(i8* nocapture noundef readonly, ...) local_unnamed_addr #2

declare i32 @gets(...) local_unnamed_addr #3

; Function Attrs: argmemonly mustprogress nofree nounwind readonly willreturn
declare i64 @strlen(i8* nocapture) local_unnamed_addr #4

; Function Attrs: argmemonly mustprogress nofree nosync nounwind willreturn
declare void @llvm.lifetime.end.p0i8(i64 immarg, i8* nocapture) #1

; Function Attrs: nofree nounwind
declare noundef i32 @puts(i8* nocapture noundef readonly) local_unnamed_addr #5


!llvm.module.flags = !{!0, !1, !2, !3}
!llvm.ident = !{!4}

!0 = !{i32 1, !"wchar_size", i32 4}
!1 = !{i32 7, !"PIC Level", i32 2}
!2 = !{i32 7, !"PIE Level", i32 2}
!3 = !{i32 7, !"uwtable", i32 1}
!4 = !{!"clang version 13.0.0"}
!5 = !{!6, !6, i64 0}
!6 = !{!"int", !7, i64 0}
!7 = !{!"omnipotent char", !8, i64 0}
!8 = !{!"Simple C/C++ TBAA"}
!9 = !{!7, !7, i64 0}
!10 = distinct !{!10, !11}
!11 = !{!"llvm.loop.mustprogress"}
!12 = distinct !{!12, !11}
